#include <math.h>
#include <stdio.h>
#include <stdlib.h>
#include <string.h>

int main()
{
	int m,n,i,j;
	double sum[100];
	scanf("%d",&m);
	for(i=0;i<m;i++)
		sum[i]=0;
	

	for(i=0;i<m;i++){
        scanf("%d",&n);
		int a=2;
		int b=1;
	
		for(j=0;j<n;j++){
		sum[i]+=1.0*a/b;
		a=a+b;
		b=a-b;
		}
		printf("%.3lf\n",sum[i]);
	
	}
	
	return 0;
}

